Certificate:
    Data:
        Version: 3 (0x2)
        Serial Number: 4 (0x4)
        Signature Algorithm: sha256WithRSAEncryption
        Issuer: C=US, O=U.S. Government, OU=NSS, OU=DoD, OU=Certification Authorities, CN=Mako Subordinate CA 1
        Validity
            Not Before: Mar  1 19:20:33 2013 GMT
            Not After : Mar  1 19:20:33 2014 GMT
        Subject: C=US, O=U.S. Government, OU=NSS, OU=DoD, OU=USN, CN=MakoClient.User.Suffix0001.edipi0001
        Subject Public Key Info:
            Public Key Algorithm: rsaEncryption
            RSA Public Key: (512 bit)
                Modulus (512 bit):
                    00:ca:74:c7:16:dd:42:55:80:a3:c4:7c:20:aa:00:
                    2a:fd:73:b5:09:e0:1e:ee:ea:7b:22:bb:5c:a2:f1:
                    49:e0:3d:fe:5c:bc:7f:88:1d:a3:44:09:d6:1d:0c:
                    57:95:4c:09:e7:42:5f:1a:7f:ba:4b:13:64:b7:21:
                    06:cc:39:66:db
                Exponent: 65537 (0x10001)
        X509v3 extensions:
            X509v3 Basic Constraints: 
                CA:FALSE
            X509v3 Subject Key Identifier: 
                99:B5:82:10:01:8D:13:F5:14:E3:C7:77:E3:40:3E:C9:9B:50:D6:45
            X509v3 Authority Key Identifier: 
                keyid:56:01:C9:5A:10:7A:C6:A4:D6:99:37:64:2E:7A:6B:13:A1:8B:AF:F7

            X509v3 Key Usage: 
                Digital Signature
            X509v3 Extended Key Usage: 
                Microsoft Smartcardlogin, TLS Web Client Authentication
            X509v3 Subject Alternative Name: 
                othername:<unsupported>
            Authority Information Access: 
                OCSP - URI:http://localhost:8088/

    Signature Algorithm: sha256WithRSAEncryption
        78:92:10:46:2a:71:77:39:1f:2b:27:f2:28:b7:77:e3:b4:ec:
        75:de:9e:c1:a5:b6:e7:e0:57:4e:07:30:77:1c:da:13:b7:19:
        f3:74:1f:dd:18:31:c6:15:28:66:e5:2b:2b:2d:2e:97:9e:64:
        2a:63:76:1b:41:02:11:fc:17:9c
-----BEGIN CERTIFICATE-----
MIIC2zCCAoWgAwIBAgIBBDANBgkqhkiG9w0BAQsFADCBhzELMAkGA1UEBhMCVVMx
GDAWBgNVBAoTD1UuUy4gR292ZXJubWVudDEMMAoGA1UECxMDTlNTMQwwCgYDVQQL
EwNEb0QxIjAgBgNVBAsTGUNlcnRpZmljYXRpb24gQXV0aG9yaXRpZXMxHjAcBgNV
BAMTFU1ha28gU3Vib3JkaW5hdGUgQ0EgMTAeFw0xMzAzMDExOTIwMzNaFw0xNDAz
MDExOTIwMzNaMIGAMQswCQYDVQQGEwJVUzEYMBYGA1UEChMPVS5TLiBHb3Zlcm5t
ZW50MQwwCgYDVQQLEwNOU1MxDDAKBgNVBAsTA0RvRDEMMAoGA1UECxMDVVNOMS0w
KwYDVQQDEyRNYWtvQ2xpZW50LlVzZXIuU3VmZml4MDAwMS5lZGlwaTAwMDEwXDAN
BgkqhkiG9w0BAQEFAANLADBIAkEAynTHFt1CVYCjxHwgqgAq/XO1CeAe7up7Irtc
ovFJ4D3+XLx/iB2jRAnWHQxXlUwJ50JfGn+6SxNktyEGzDlm2wIDAQABo4HgMIHd
MAkGA1UdEwQCMAAwHQYDVR0OBBYEFJm1ghABjRP1FOPHd+NAPsmbUNZFMB8GA1Ud
IwQYMBaAFFYByVoQesak1pk3ZC56axOhi6/3MAsGA1UdDwQEAwIHgDAfBgNVHSUE
GDAWBgorBgEEAYI3FAICBggrBgEFBQcDAjAuBgNVHREEJzAloCMGCisGAQQBgjcU
AgOgFQwTOTk5MDAwMDAwMUBzbWlsLm1pbDAyBggrBgEFBQcBAQQmMCQwIgYIKwYB
BQUHMAGGFmh0dHA6Ly9sb2NhbGhvc3Q6ODA4OC8wDQYJKoZIhvcNAQELBQADQQB4
khBGKnF3OR8rJ/Iot3fjtOx13p7Bpbbn4FdOBzB3HNoTtxnzdB/dGDHGFShm5Ssr
LS6XnmQqY3YbQQIR/Bec
-----END CERTIFICATE-----
