Certificate:
    Data:
        Version: 3 (0x2)
        Serial Number: 0 (0x0)
        Signature Algorithm: sha256WithRSAEncryption
        Issuer: C=US, O=U.S. Government, OU=NSS, OU=DoD, OU=Certification Authorities, CN=Mako Subordinate CA 1
        Validity
            Not Before: Mar  1 19:20:32 2013 GMT
            Not After : Mar  1 19:20:32 2014 GMT
        Subject: C=US, O=U.S. Government, OU=NSS, OU=DoD, OU=USN, CN=ocsp.demo.local
        Subject Public Key Info:
            Public Key Algorithm: rsaEncryption
            RSA Public Key: (512 bit)
                Modulus (512 bit):
                    00:b1:47:8c:af:ff:c7:fe:3e:46:5f:d9:85:b4:d6:
                    e1:5e:a4:cb:cb:72:87:28:68:71:80:1e:bb:66:77:
                    74:45:98:76:ab:8f:55:46:69:35:26:b3:48:07:27:
                    16:dd:82:9a:94:50:c8:2f:37:fd:e4:07:08:b6:9c:
                    3e:1c:7c:04:cf
                Exponent: 65537 (0x10001)
        X509v3 extensions:
            X509v3 Basic Constraints: 
                CA:FALSE
            X509v3 Subject Key Identifier: 
                73:8A:13:D2:9D:80:DB:92:23:9C:08:5F:69:85:82:86:2F:96:8C:D7
            X509v3 Key Usage: 
                Digital Signature, Key Encipherment
            X509v3 Extended Key Usage: 
                TLS Web Server Authentication, OCSP Signing
    Signature Algorithm: sha256WithRSAEncryption
        cb:4a:27:f6:0b:df:46:b6:83:49:30:75:6e:60:bb:5b:bf:b5:
        d8:72:61:59:39:ed:ed:68:ef:a5:c8:2f:e8:2e:ac:16:9a:50:
        df:f9:99:42:93:c8:7b:35:e1:b8:84:15:a9:76:24:8e:50:1d:
        8c:d1:46:5c:e7:27:fc:66:84:ff
-----BEGIN CERTIFICATE-----
MIICPDCCAeagAwIBAgIBADANBgkqhkiG9w0BAQsFADCBhzELMAkGA1UEBhMCVVMx
GDAWBgNVBAoTD1UuUy4gR292ZXJubWVudDEMMAoGA1UECxMDTlNTMQwwCgYDVQQL
EwNEb0QxIjAgBgNVBAsTGUNlcnRpZmljYXRpb24gQXV0aG9yaXRpZXMxHjAcBgNV
BAMTFU1ha28gU3Vib3JkaW5hdGUgQ0EgMTAeFw0xMzAzMDExOTIwMzJaFw0xNDAz
MDExOTIwMzJaMGsxCzAJBgNVBAYTAlVTMRgwFgYDVQQKEw9VLlMuIEdvdmVybm1l
bnQxDDAKBgNVBAsTA05TUzEMMAoGA1UECxMDRG9EMQwwCgYDVQQLEwNVU04xGDAW
BgNVBAMTD29jc3AuZGVtby5sb2NhbDBcMA0GCSqGSIb3DQEBAQUAA0sAMEgCQQCx
R4yv/8f+PkZf2YW01uFepMvLcocoaHGAHrtmd3RFmHarj1VGaTUms0gHJxbdgpqU
UMgvN/3kBwi2nD4cfATPAgMBAAGjWDBWMAkGA1UdEwQCMAAwHQYDVR0OBBYEFHOK
E9KdgNuSI5wIX2mFgoYvlozXMAsGA1UdDwQEAwIFoDAdBgNVHSUEFjAUBggrBgEF
BQcDAQYIKwYBBQUHAwkwDQYJKoZIhvcNAQELBQADQQDLSif2C99GtoNJMHVuYLtb
v7XYcmFZOe3taO+lyC/oLqwWmlDf+ZlCk8h7NeG4hBWpdiSOUB2M0UZc5yf8ZoT/
-----END CERTIFICATE-----
